target datalayout = "e-m:e-p270:32:32-p271:32:32-p272:64:64-i64:64-i128:128-f80:128-n8:16:32:64-S128"
target triple = "x86_64-pc-linux-gnu"

%struct._zend_executor_globals = type { %struct._zval_struct, %struct._zval_struct, [32 x ptr], ptr, ptr, %struct._zend_array, %struct._zend_array, ptr, i32, i32, ptr, ptr, ptr, ptr, ptr, ptr, i64, ptr, ptr, i32, i32, i64, i32, i32, i32, i8, i8, %struct.zend_atomic_bool_s, %struct.zend_atomic_bool_s, ptr, i64, ptr, ptr, %struct._zend_array, %struct._zend_array, i32, i8, %struct._zval_struct, %struct._zval_struct, %struct._zend_stack, %struct._zend_stack, %struct._zend_stack, ptr, i32, i32, i64, ptr, ptr, ptr, %struct._zend_objects_store, ptr, ptr, ptr, [3 x %struct._zend_op], ptr, i8, i8, i64, i32, i32, ptr, [16 x %struct._HashTableIterator], ptr, %union._zend_function, %struct._zend_op, %struct._zend_array, i64, %struct.zend_get_gc_buffer, ptr, ptr, ptr, i64, i8, i32, ptr, ptr, i64, %struct._zend_call_stack, i64, i64, [6 x ptr] }
%struct.zend_atomic_bool_s = type { i8 }
%struct._zval_struct = type { %union._zend_value, %union.anon.2, %union.anon.5 }
%union._zend_value = type { i64 }
%union.anon.2 = type { i32 }
%union.anon.5 = type { i32 }
%struct._zend_stack = type { i32, i32, i32, ptr }
%struct._zend_objects_store = type { ptr, i32, i32, i32 }
%struct._HashTableIterator = type { ptr, i32, i32 }
%union._zend_function = type { %struct._zend_op_array }
%struct._zend_op_array = type { i8, [3 x i8], i32, ptr, ptr, ptr, i32, i32, ptr, ptr, ptr, ptr, i32, i32, i32, i32, ptr, ptr, ptr, ptr, ptr, i32, i32, ptr, ptr, ptr, i32, i32, i32, i32, ptr, ptr, [6 x ptr] }
%struct._zend_op = type { ptr, %union._znode_op, %union._znode_op, %union._znode_op, i32, i32, i8, i8, i8, i8 }
%union._znode_op = type { i32 }
%struct._zend_array = type { %struct._zend_refcounted_h, %union.anon.7, i32, %union.anon.9, i32, i32, i32, i32, i64, ptr }
%struct._zend_refcounted_h = type { i32, %union.anon.6 }
%union.anon.6 = type { i32 }
%union.anon.7 = type { i32 }
%union.anon.9 = type { ptr }
%struct.zend_get_gc_buffer = type { ptr, ptr, ptr }
%struct._zend_call_stack = type { ptr, i64 }
%struct._spl_filesystem_object = type { ptr, ptr, ptr, ptr, ptr, i32, i64, ptr, ptr, %union.anon, %struct._zend_object }
%union.anon = type { %struct.anon }
%struct.anon = type { ptr, ptr, i32, ptr, ptr, ptr, %struct._php_stream_dirent }
%struct._php_stream_dirent = type { [256 x i8], i8 }
%struct._zend_object = type { %struct._zend_refcounted_h, i32, ptr, ptr, ptr, [1 x %struct._zval_struct] }
%struct._zend_execute_data = type { ptr, ptr, ptr, ptr, %struct._zval_struct, ptr, ptr, ptr, ptr }

@executor_globals = external global %struct._zend_executor_globals, align 8
@.str = private unnamed_addr constant [23 x i8] c"Object not initialized\00", align 1
@.str.1 = private unnamed_addr constant [2 x i8] c"l\00", align 1
@.str.2 = private unnamed_addr constant [7 x i8] c"rewind\00", align 1
@.str.3 = private unnamed_addr constant [6 x i8] c"valid\00", align 1
@spl_ce_OutOfBoundsException = external global ptr, align 8
@.str.4 = private unnamed_addr constant [34 x i8] c"Seek position %ld is out of range\00", align 1
@.str.5 = private unnamed_addr constant [5 x i8] c"next\00", align 1

; Function Attrs: nounwind uwtable
define internal ptr @spl_filesystem_from_obj(ptr noundef %0) #0 {
  %2 = alloca ptr, align 8
  store ptr %0, ptr %2, align 8
  %3 = load ptr, ptr %2, align 8
  %4 = getelementptr inbounds i8, ptr %3, i64 -384
  ret ptr %4
}

; Function Attrs: nounwind uwtable
define hidden void @zim_DirectoryIterator_seek(ptr noundef %0, ptr noundef %1) #0 {
  %3 = alloca ptr, align 8
  %4 = alloca ptr, align 8
  %5 = alloca ptr, align 8
  %6 = alloca ptr, align 8
  %7 = alloca ptr, align 8
  %8 = alloca ptr, align 8
  %9 = alloca ptr, align 8
  %10 = alloca ptr, align 8
  %11 = alloca ptr, align 8
  %12 = alloca ptr, align 8
  %13 = alloca ptr, align 8
  %14 = alloca ptr, align 8
  %15 = alloca ptr, align 8
  %16 = alloca ptr, align 8
  %17 = alloca ptr, align 8
  %18 = alloca ptr, align 8
  %19 = alloca ptr, align 8
  %20 = alloca ptr, align 8
  %21 = alloca %struct._zval_struct, align 8
  %22 = alloca i64, align 8
  %23 = alloca i8, align 1
  store ptr %0, ptr %18, align 8
  store ptr %1, ptr %19, align 8
  %24 = load ptr, ptr %18, align 8
  %25 = getelementptr inbounds %struct._zend_execute_data, ptr %24, i32 0, i32 4
  %26 = getelementptr inbounds %struct._zval_struct, ptr %25, i32 0, i32 0
  %27 = load ptr, ptr %26, align 8
  %28 = call ptr @spl_filesystem_from_obj(ptr noundef %27)
  store ptr %28, ptr %20, align 8
  %29 = load ptr, ptr %18, align 8
  %30 = getelementptr inbounds %struct._zend_execute_data, ptr %29, i32 0, i32 4
  %31 = getelementptr inbounds %struct._zval_struct, ptr %30, i32 0, i32 2
  %32 = load i32, ptr %31, align 4
  %33 = call i32 (i32, ptr, ...) @zend_parse_parameters(i32 noundef %32, ptr noundef @.str.1, ptr noundef %22)
  %34 = icmp eq i32 %33, -1
  br i1 %34, label %35, label %40

35:                                               ; preds = %2
  br label %36

36:                                               ; preds = %35
  %37 = load ptr, ptr getelementptr inbounds (%struct._zend_executor_globals, ptr @executor_globals, i32 0, i32 50), align 8
  %38 = icmp ne ptr %37, null
  call void @llvm.assume(i1 %38)
  br label %147

39:                                               ; No predecessors!
  br label %40

40:                                               ; preds = %39, %2
  %41 = load ptr, ptr %20, align 8
  %42 = getelementptr inbounds %struct._spl_filesystem_object, ptr %41, i32 0, i32 9
  %43 = getelementptr inbounds %struct.anon, ptr %42, i32 0, i32 0
  %44 = load ptr, ptr %43, align 8
  %45 = icmp ne ptr %44, null
  br i1 %45, label %51, label %46

46:                                               ; preds = %40
  call void (ptr, ptr, ...) @zend_throw_error(ptr noundef null, ptr noundef @.str)
  br label %47

47:                                               ; preds = %46
  %48 = load ptr, ptr getelementptr inbounds (%struct._zend_executor_globals, ptr @executor_globals, i32 0, i32 50), align 8
  %49 = icmp ne ptr %48, null
  call void @llvm.assume(i1 %49)
  br label %147

50:                                               ; No predecessors!
  br label %51

51:                                               ; preds = %50, %40
  %52 = load ptr, ptr %20, align 8
  %53 = getelementptr inbounds %struct._spl_filesystem_object, ptr %52, i32 0, i32 9
  %54 = getelementptr inbounds %struct.anon, ptr %53, i32 0, i32 2
  %55 = load i32, ptr %54, align 8
  %56 = sext i32 %55 to i64
  %57 = load i64, ptr %22, align 8
  %58 = icmp sgt i64 %56, %57
  br i1 %58, label %59, label %81

59:                                               ; preds = %51
  %60 = load ptr, ptr %18, align 8
  %61 = getelementptr inbounds %struct._zend_execute_data, ptr %60, i32 0, i32 4
  %62 = getelementptr inbounds %struct._zval_struct, ptr %61, i32 0, i32 0
  %63 = load ptr, ptr %62, align 8
  %64 = load ptr, ptr %18, align 8
  %65 = getelementptr inbounds %struct._zend_execute_data, ptr %64, i32 0, i32 4
  %66 = getelementptr inbounds %struct._zval_struct, ptr %65, i32 0, i32 0
  %67 = load ptr, ptr %66, align 8
  %68 = getelementptr inbounds %struct._zend_object, ptr %67, i32 0, i32 2
  %69 = load ptr, ptr %68, align 8
  %70 = load ptr, ptr %20, align 8
  %71 = getelementptr inbounds %struct._spl_filesystem_object, ptr %70, i32 0, i32 9
  %72 = getelementptr inbounds %struct.anon, ptr %71, i32 0, i32 3
  store ptr %63, ptr %3, align 8
  store ptr %69, ptr %4, align 8
  store ptr %72, ptr %5, align 8
  store ptr @.str.2, ptr %6, align 8
  store ptr null, ptr %7, align 8
  %73 = load ptr, ptr %3, align 8
  %74 = load ptr, ptr %4, align 8
  %75 = load ptr, ptr %5, align 8
  %76 = load ptr, ptr %6, align 8
  %77 = load ptr, ptr %6, align 8
  %78 = call i64 @strlen(ptr noundef %77) #13
  %79 = load ptr, ptr %7, align 8
  %80 = call ptr @zend_call_method(ptr noundef %73, ptr noundef %74, ptr noundef %75, ptr noundef %76, i64 noundef %78, ptr noundef %79, i32 noundef 0, ptr noundef null, ptr noundef null) #12
  br label %81

81:                                               ; preds = %59, %51
  br label %82

82:                                               ; preds = %125, %81
  %83 = load ptr, ptr %20, align 8
  %84 = getelementptr inbounds %struct._spl_filesystem_object, ptr %83, i32 0, i32 9
  %85 = getelementptr inbounds %struct.anon, ptr %84, i32 0, i32 2
  %86 = load i32, ptr %85, align 8
  %87 = sext i32 %86 to i64
  %88 = load i64, ptr %22, align 8
  %89 = icmp slt i64 %87, %88
  br i1 %89, label %90, label %147

90:                                               ; preds = %82
  store i8 0, ptr %23, align 1
  %91 = load ptr, ptr %18, align 8
  %92 = getelementptr inbounds %struct._zend_execute_data, ptr %91, i32 0, i32 4
  %93 = getelementptr inbounds %struct._zval_struct, ptr %92, i32 0, i32 0
  %94 = load ptr, ptr %93, align 8
  %95 = load ptr, ptr %18, align 8
  %96 = getelementptr inbounds %struct._zend_execute_data, ptr %95, i32 0, i32 4
  %97 = getelementptr inbounds %struct._zval_struct, ptr %96, i32 0, i32 0
  %98 = load ptr, ptr %97, align 8
  %99 = getelementptr inbounds %struct._zend_object, ptr %98, i32 0, i32 2
  %100 = load ptr, ptr %99, align 8
  %101 = load ptr, ptr %20, align 8
  %102 = getelementptr inbounds %struct._spl_filesystem_object, ptr %101, i32 0, i32 9
  %103 = getelementptr inbounds %struct.anon, ptr %102, i32 0, i32 5
  store ptr %94, ptr %8, align 8
  store ptr %100, ptr %9, align 8
  store ptr %103, ptr %10, align 8
  store ptr @.str.3, ptr %11, align 8
  store ptr %21, ptr %12, align 8
  %104 = load ptr, ptr %8, align 8
  %105 = load ptr, ptr %9, align 8
  %106 = load ptr, ptr %10, align 8
  %107 = load ptr, ptr %11, align 8
  %108 = load ptr, ptr %11, align 8
  %109 = call i64 @strlen(ptr noundef %108) #13
  %110 = load ptr, ptr %12, align 8
  %111 = call ptr @zend_call_method(ptr noundef %104, ptr noundef %105, ptr noundef %106, ptr noundef %107, i64 noundef %109, ptr noundef %110, i32 noundef 0, ptr noundef null, ptr noundef null) #12
  %112 = call i32 @zend_is_true(ptr noundef %21)
  %113 = icmp ne i32 %112, 0
  %114 = zext i1 %113 to i8
  store i8 %114, ptr %23, align 1
  call void @zval_ptr_dtor(ptr noundef %21)
  %115 = load i8, ptr %23, align 1
  %116 = trunc i8 %115 to i1
  br i1 %116, label %125, label %117

117:                                              ; preds = %90
  %118 = load ptr, ptr @spl_ce_OutOfBoundsException, align 8
  %119 = load i64, ptr %22, align 8
  %120 = call ptr (ptr, i64, ptr, ...) @zend_throw_exception_ex(ptr noundef %118, i64 noundef 0, ptr noundef @.str.4, i64 noundef %119)
  br label %121

121:                                              ; preds = %117
  %122 = load ptr, ptr getelementptr inbounds (%struct._zend_executor_globals, ptr @executor_globals, i32 0, i32 50), align 8
  %123 = icmp ne ptr %122, null
  call void @llvm.assume(i1 %123)
  br label %147

124:                                              ; No predecessors!
  br label %125

125:                                              ; preds = %124, %90
  %126 = load ptr, ptr %18, align 8
  %127 = getelementptr inbounds %struct._zend_execute_data, ptr %126, i32 0, i32 4
  %128 = getelementptr inbounds %struct._zval_struct, ptr %127, i32 0, i32 0
  %129 = load ptr, ptr %128, align 8
  %130 = load ptr, ptr %18, align 8
  %131 = getelementptr inbounds %struct._zend_execute_data, ptr %130, i32 0, i32 4
  %132 = getelementptr inbounds %struct._zval_struct, ptr %131, i32 0, i32 0
  %133 = load ptr, ptr %132, align 8
  %134 = getelementptr inbounds %struct._zend_object, ptr %133, i32 0, i32 2
  %135 = load ptr, ptr %134, align 8
  %136 = load ptr, ptr %20, align 8
  %137 = getelementptr inbounds %struct._spl_filesystem_object, ptr %136, i32 0, i32 9
  %138 = getelementptr inbounds %struct.anon, ptr %137, i32 0, i32 4
  store ptr %129, ptr %13, align 8
  store ptr %135, ptr %14, align 8
  store ptr %138, ptr %15, align 8
  store ptr @.str.5, ptr %16, align 8
  store ptr null, ptr %17, align 8
  %139 = load ptr, ptr %13, align 8
  %140 = load ptr, ptr %14, align 8
  %141 = load ptr, ptr %15, align 8
  %142 = load ptr, ptr %16, align 8
  %143 = load ptr, ptr %16, align 8
  %144 = call i64 @strlen(ptr noundef %143) #13
  %145 = load ptr, ptr %17, align 8
  %146 = call ptr @zend_call_method(ptr noundef %139, ptr noundef %140, ptr noundef %141, ptr noundef %142, i64 noundef %144, ptr noundef %145, i32 noundef 0, ptr noundef null, ptr noundef null) #12
  br label %82

147:                                              ; preds = %121, %82, %47, %36
  ret void
}