; Function Attrs: nounwind uwtable
define hidden void @zim_DirectoryIterator_seek(ptr nocapture noundef readonly %0, ptr nocapture readnone %1) #0 {
  %3 = alloca %struct._zval_struct, align 8
  %4 = alloca i64, align 8
  %5 = getelementptr inbounds i8, ptr %0, i64 32
  %6 = load ptr, ptr %5, align 8
  %7 = getelementptr inbounds i8, ptr %0, i64 44
  %8 = load i32, ptr %7, align 4
  %9 = call i32 (i32, ptr, ...) @zend_parse_parameters(i32 noundef %8, ptr noundef nonnull @.str.1, ptr noundef nonnull %4) #18
  %10 = icmp eq i32 %9, -1
  br i1 %10, label %.loopexit.sink.split, label %11

11:                                               ; preds = %2
  %12 = getelementptr inbounds i8, ptr %6, i64 -312
  %13 = load ptr, ptr %12, align 8
  %.not = icmp eq ptr %13, null
  br i1 %.not, label %14, label %15

14:                                               ; preds = %11
  call void (ptr, ptr, ...) @zend_throw_error(ptr noundef null, ptr noundef nonnull @.str) #18
  br label %.loopexit.sink.split

15:                                               ; preds = %11
  %16 = getelementptr inbounds i8, ptr %6, i64 -296
  %17 = load i32, ptr %16, align 8
  %18 = sext i32 %17 to i64
  %19 = load i64, ptr %4, align 8
  %20 = icmp slt i64 %19, %18
  br i1 %20, label %21, label %27

21:                                               ; preds = %15
  %22 = load ptr, ptr %5, align 8
  %23 = getelementptr inbounds i8, ptr %22, i64 16
  %24 = load ptr, ptr %23, align 8
  %25 = getelementptr inbounds i8, ptr %6, i64 -288
  %26 = call ptr @zend_call_method(ptr noundef %22, ptr noundef %24, ptr noundef nonnull %25, ptr noundef nonnull @.str.2, i64 noundef 6, ptr noundef null, i32 noundef 0, ptr noundef null, ptr noundef null) #18
  %.pre = load i32, ptr %16, align 8
  %.pre33 = load i64, ptr %4, align 8
  %.pre34 = sext i32 %.pre to i64
  br label %27

27:                                               ; preds = %21, %15
  %.pre-phi = phi i64 [ %.pre34, %21 ], [ %18, %15 ]
  %28 = phi i64 [ %.pre33, %21 ], [ %19, %15 ]
  %29 = icmp sgt i64 %28, %.pre-phi
  br i1 %29, label %.lr.ph, label %.loopexit

.lr.ph:                                           ; preds = %27
  %30 = getelementptr inbounds i8, ptr %6, i64 -272
  %31 = getelementptr inbounds i8, ptr %6, i64 -280
  br label %32

32:                                               ; preds = %.lr.ph, %42
  %33 = load ptr, ptr %5, align 8
  %34 = getelementptr inbounds i8, ptr %33, i64 16
  %35 = load ptr, ptr %34, align 8
  %36 = call ptr @zend_call_method(ptr noundef %33, ptr noundef %35, ptr noundef nonnull %30, ptr noundef nonnull @.str.3, i64 noundef 5, ptr noundef nonnull %3, i32 noundef 0, ptr noundef null, ptr noundef null) #18
  %37 = call i32 @zend_is_true(ptr noundef nonnull %3) #18
  %.not32 = icmp eq i32 %37, 0
  call void @zval_ptr_dtor(ptr noundef nonnull %3) #18
  br i1 %.not32, label %38, label %42

38:                                               ; preds = %32
  %39 = load ptr, ptr @spl_ce_OutOfBoundsException, align 8
  %40 = load i64, ptr %4, align 8
  %41 = call ptr (ptr, i64, ptr, ...) @zend_throw_exception_ex(ptr noundef %39, i64 noundef 0, ptr noundef nonnull @.str.4, i64 noundef %40) #18
  br label %.loopexit.sink.split

42:                                               ; preds = %32
  %43 = load ptr, ptr %5, align 8
  %44 = getelementptr inbounds i8, ptr %43, i64 16
  %45 = load ptr, ptr %44, align 8
  %46 = call ptr @zend_call_method(ptr noundef %43, ptr noundef %45, ptr noundef nonnull %31, ptr noundef nonnull @.str.5, i64 noundef 4, ptr noundef null, i32 noundef 0, ptr noundef null, ptr noundef null) #18
  %47 = load i32, ptr %16, align 8
  %48 = sext i32 %47 to i64
  %49 = load i64, ptr %4, align 8
  %50 = icmp sgt i64 %49, %48
  br i1 %50, label %32, label %.loopexit

.loopexit.sink.split:                             ; preds = %2, %14, %38
  %51 = load ptr, ptr getelementptr inbounds (%struct._zend_executor_globals, ptr @executor_globals, i64 0, i32 50), align 8
  %52 = icmp ne ptr %51, null
  call void @llvm.assume(i1 %52)
  br label %.loopexit

.loopexit:                                        ; preds = %42, %.loopexit.sink.split, %27
  ret void
}